(dp1
S'failed'
p2
(lp3
sS'source_names'
p4
(lp5
S'.'
asS'ids'
p6
(dp7
I1
(S'/home/saman/.qgis2/python/plugins/JacqQVis/test/test_init.py'
S'JacqQVis.test.test_init'
S'TestInit.test_read_init'
tp8
sI2
(S'/home/saman/.qgis2/python/plugins/JacqQVis/test/test_jacqqvis_dialog.py'
S'JacqQVis.test.test_jacqqvis_dialog'
p9
S'JacqQVisDialogTest.test_dialog_cancel'
tp10
sI3
(S'/home/saman/.qgis2/python/plugins/JacqQVis/test/test_jacqqvis_dialog.py'
g9
S'JacqQVisDialogTest.test_dialog_ok'
tp11
sI4
(S'/home/saman/.qgis2/python/plugins/JacqQVis/test/test_qgis_environment.py'
S'JacqQVis.test.test_qgis_environment'
p12
S'QGISTest.test_projection'
tp13
sI5
(S'/home/saman/.qgis2/python/plugins/JacqQVis/test/test_qgis_environment.py'
g12
S'QGISTest.test_qgis_environment'
tp14
sI6
(S'/home/saman/.qgis2/python/plugins/JacqQVis/test/test_resources.py'
S'JacqQVis.test.test_resources'
S'JacqQVisDialogTest.test_icon_png'
tp15
sI7
(S'/home/saman/.qgis2/python/plugins/JacqQVis/test/test_translations.py'
S'JacqQVis.test.test_translations'
S'SafeTranslationsTest.test_qgis_translations'
tp16
ss.